Certificate:
    Data:
        Version: 3 (0x2)
        Serial Number:
            6c:10:44:65:09:c8:5e:2e:41:0c:e6:cf:6a:45:71:84:3d:1b:03:1b
        Signature Algorithm: sha256WithRSAEncryption
        Issuer: C=JP, ST=Tokyo, O=Waseda University, OU=Shimizu-Lab, CN=localhost
        Validity
            Not Before: Aug 11 13:08:36 2019 GMT
            Not After : Aug 10 13:08:36 2020 GMT
        Subject: C=JP, ST=Tokyo, O=Waseda University, OU=client, CN=localhost
        Subject Public Key Info:
            Public Key Algorithm: rsaEncryption
                RSA Public-Key: (2048 bit)
                Modulus:
                    00:b0:f1:19:2f:76:b1:b4:19:85:88:1a:fa:d1:10:
                    02:b0:5f:c5:82:66:ff:2e:2d:94:b4:c6:eb:05:2b:
                    d1:fc:ce:fd:a1:3d:b1:25:05:9e:9a:6d:8f:6d:72:
                    d1:0e:4c:5e:e9:8c:33:3d:2e:e5:bb:a1:dd:bb:b7:
                    c4:ac:a8:36:23:1a:19:b1:2f:01:85:bb:2d:8f:5d:
                    7b:ad:31:aa:e5:dd:c3:44:58:4a:93:5f:6a:07:7e:
                    a6:c0:e6:00:f2:d4:49:16:6c:98:36:ed:48:1f:b7:
                    42:69:51:0e:f9:ba:f0:dc:4f:27:5f:3f:e2:0d:86:
                    94:1e:61:c6:e6:b4:f2:9c:cb:fb:03:a3:4f:48:ae:
                    4c:ec:51:9e:d5:39:31:94:da:dc:be:9e:7c:c2:89:
                    3c:13:18:ea:12:58:62:4a:74:2e:7e:d1:34:ee:3f:
                    06:ed:ca:64:45:ad:aa:59:ef:1b:02:79:5f:ef:14:
                    48:96:47:71:6d:9e:9a:6f:03:93:9c:ad:f7:0a:a9:
                    8f:e5:23:26:dd:30:58:67:f4:d9:09:23:18:59:36:
                    d4:8b:40:ec:a8:b7:68:ae:e8:ff:60:44:1a:a4:ab:
                    d5:92:f4:8a:9e:21:98:a3:2f:30:25:20:66:e5:cc:
                    39:1a:76:42:79:fc:8f:25:f1:b3:01:fe:5a:3f:67:
                    61:29
                Exponent: 65537 (0x10001)
        X509v3 extensions:
            X509v3 Basic Constraints: 
                CA:FALSE
            Netscape Comment: 
                OpenSSL Generated Certificate
            X509v3 Subject Key Identifier: 
                5E:18:5A:47:12:A1:AA:F6:26:3A:DB:8F:4D:C0:20:E0:44:7A:73:5C
            X509v3 Authority Key Identifier: 
                keyid:49:57:77:02:4D:C2:4B:6C:A7:30:8B:A3:03:05:39:0C:CB:ED:28:9B

    Signature Algorithm: sha256WithRSAEncryption
         bb:d3:7c:dd:ad:7f:8a:e1:23:9e:fd:d4:71:7d:5e:60:6b:f1:
         99:e1:03:7b:dd:4e:ca:26:2f:73:1e:b1:c5:c8:93:1b:ba:f3:
         3b:5f:23:9d:80:36:3c:84:bc:2c:ac:68:bd:4b:bc:3c:31:71:
         8d:64:e7:58:5f:be:b7:d6:e3:4e:d8:c4:48:23:7a:d0:58:96:
         18:24:04:81:6a:62:c6:c4:22:10:6c:27:eb:66:79:76:90:6b:
         51:f7:6f:fe:c1:14:12:dd:59:f6:59:d1:fa:62:b9:21:35:60:
         db:79:0c:1f:56:30:d9:b0:a3:6b:87:78:9e:61:0f:de:41:a8:
         6b:5e:3c:5d:db:63:78:2f:62:b6:bb:ab:99:e7:29:c0:70:d5:
         4b:9e:70:54:e3:48:9f:8d:51:6e:33:41:7f:34:ff:d8:f7:16:
         5f:44:cd:90:15:c4:e5:54:2d:43:96:52:89:51:6b:b9:93:8d:
         94:6b:0d:7b:bd:49:c7:24:8e:24:0c:98:87:ea:97:6b:49:b3:
         8f:ed:5d:7a:3a:01:ef:b3:01:81:61:02:90:d7:c6:24:65:ec:
         5e:53:86:04:d3:63:9d:7f:05:32:2b:b1:ef:04:44:75:4c:fe:
         48:e8:bb:a8:0f:8f:cc:43:56:7f:1d:81:07:21:eb:2c:61:78:
         26:d6:b2:16
-----BEGIN CERTIFICATE-----
MIIDyjCCArKgAwIBAgIUbBBEZQnIXi5BDObPakVxhD0bAxswDQYJKoZIhvcNAQEL
BQAwYzELMAkGA1UEBhMCSlAxDjAMBgNVBAgMBVRva3lvMRowGAYDVQQKDBFXYXNl
ZGEgVW5pdmVyc2l0eTEUMBIGA1UECwwLU2hpbWl6dS1MYWIxEjAQBgNVBAMMCWxv
Y2FsaG9zdDAeFw0xOTA4MTExMzA4MzZaFw0yMDA4MTAxMzA4MzZaMF4xCzAJBgNV
BAYTAkpQMQ4wDAYDVQQIDAVUb2t5bzEaMBgGA1UECgwRV2FzZWRhIFVuaXZlcnNp
dHkxDzANBgNVBAsMBmNsaWVudDESMBAGA1UEAwwJbG9jYWxob3N0MIIBIjANBgkq
hkiG9w0BAQEFAAOCAQ8AMIIBCgKCAQEAsPEZL3axtBmFiBr60RACsF/Fgmb/Li2U
tMbrBSvR/M79oT2xJQWemm2PbXLRDkxe6YwzPS7lu6Hdu7fErKg2IxoZsS8Bhbst
j117rTGq5d3DRFhKk19qB36mwOYA8tRJFmyYNu1IH7dCaVEO+brw3E8nXz/iDYaU
HmHG5rTynMv7A6NPSK5M7FGe1TkxlNrcvp58wok8ExjqElhiSnQuftE07j8G7cpk
Ra2qWe8bAnlf7xRIlkdxbZ6abwOTnK33CqmP5SMm3TBYZ/TZCSMYWTbUi0DsqLdo
ruj/YEQapKvVkvSKniGYoy8wJSBm5cw5GnZCefyPJfGzAf5aP2dhKQIDAQABo3sw
eTAJBgNVHRMEAjAAMCwGCWCGSAGG+EIBDQQfFh1PcGVuU1NMIEdlbmVyYXRlZCBD
ZXJ0aWZpY2F0ZTAdBgNVHQ4EFgQUXhhaRxKhqvYmOtuPTcAg4ER6c1wwHwYDVR0j
BBgwFoAUSVd3Ak3CS2ynMIujAwU5DMvtKJswDQYJKoZIhvcNAQELBQADggEBALvT
fN2tf4rhI5791HF9XmBr8ZnhA3vdTsomL3MescXIkxu68ztfI52ANjyEvCysaL1L
vDwxcY1k51hfvrfW407YxEgjetBYlhgkBIFqYsbEIhBsJ+tmeXaQa1H3b/7BFBLd
WfZZ0fpiuSE1YNt5DB9WMNmwo2uHeJ5hD95BqGtePF3bY3gvYra7q5nnKcBw1Uue
cFTjSJ+NUW4zQX80/9j3Fl9EzZAVxOVULUOWUolRa7mTjZRrDXu9ScckjiQMmIfq
l2tJs4/tXXo6Ae+zAYFhApDXxiRl7F5ThgTTY51/BTIrse8ERHVM/kjou6gPj8xD
Vn8dgQch6yxheCbWshY=
-----END CERTIFICATE-----
-----BEGIN RSA PRIVATE KEY-----
Proc-Type: 4,ENCRYPTED
DEK-Info: DES-EDE3-CBC,08CE0E9D7854D3E9

FhsOM+uHqiJGWdcYZ88XuVpbpzSfNzBxOjaQLGe9//6Il9CUGsFNwZ+++jPkl319
vf/pEXenERZtN6/LeJ+re2E1CxyQ8XbRrw7MuZ+Q83aEUvhVWZcnFR8hAyjwACdL
/d54nHxmgVKOuynITzF58eun/j7oCwkYiuu+k1L8EO9AX7it724Rfj460mxe6yJG
1RbLLqbvkFydoAyI+vheA7vdOEEwC1AarsvXXB7n83mwT7Lg49i9hyAuJgrqyB4+
yJKmZaNROWTkxcRIZ6LgUZOApJilIUgTRda3b/LcPA+cau1epLYOJMFEJFM1G546
CjfDX7N2ROfiHpyirXX9noQPPNVY0EdDZS56TtpcI2Q9+O9qZkRU/sJMbH1pDk4g
7QU0bPCQ3ZPVQx/M+a11MtRIQRNWI+qmKGh8np4Ih2OoPI83Yz3ljkXQYneKtEQS
0OU4OVTy0vUirZF3651YrN185F3kc4/SLTVi795IhwVha1n4mlsGYz7BLMGLgBxg
7lF4LHqnMvF5+eLjPpFAyW8kFO7cOTlrE75gA7ilW3WiYl7msY9W6f18JiM0ETbt
VhYodFmdCsUByu9D3PY+67Lx9O+yB1WM1wPz/b9+IY/tOB4I01sc6v+PVQ8IPl3B
LuscGkDmbC71oWbOrlL9G3d2n5BIe8fyJu5t+tt8HN/j6R47DKrPYjSQtM6+xzq8
UkBOK1hMsVL91o+6X2pKOFof2ypkrnziDAMYWjuxa0gWi47RSc5k9dVm7eC1PNo5
w/axfUfOZOZUyvW8pd2jeJvSPyrihdbCDWYLys5icDb8QsPgMO1TC6Er3OrDTnF2
cblx8t24FW3acmQtycH7UZoLpAfhmbnbNsYiZn/n76zEZXVZlYNDoTModd7DkSRB
lxBI+OQ1DWRnuAnvAa7nTEgQf2VMtxliwoTZTTQztE/WIJ9JMAhE8bhx64Y/uPe+
SCOuekNvQG+t6T5LIQYVpV9B0Xr03FId+5E+uw7iAO6M3+W/AwoFzIRa9qjYmFV6
7mKdnO7biTWseBUoDrAAeg9u24OcGHKSYlirf0FIzoNoYHGCiRhgFWfVaYyYtSap
zS2BcJhstSWEuSfv1nbxUWzOcHTkomSqcVrz9zKAFaC/FAvNt+p/9EavJH3uOdsv
5mJN3Fnmm4OlB9WtocjIZdcztk3ZdqENW622psbWSVzepFAGp19XwqhK9OB/I2FD
6L3VnQK46xfDd4sddfajmQ2g12sfyZRnGyhyuL9s/ZzkzotuTAB2VyIqTh6LohYq
dXDdRoMOWZKPnsmg+lO5dtfMxNSNy8ucbwNAFHGvgho6A7K5Q/aEVMgmhF4X5Tii
Lc6ADZMQBSZucNG4T96VXA0btqKi8+IkP+jbh4azRpSPly/PleXRDQ4OVDvJ2PYH
4shXfQ8Z3OFE0etOev0nevcC94NunOUgkbQWbum+qQlUvyW6eJ5J5PcN1ls4WEgX
3CNnk6+oZSyUbQ+MS3hKAOHhZHqxJ5JkZ4wvhFQ308yVGLCf8Q5NVwBaHUdv9Vra
lk3456klEpc8nuftcKioq9dgufDvjyiDaLKFk3us+Ay3oZpdgOh/Rg==
-----END RSA PRIVATE KEY-----
