Certificate:
    Data:
        Version: 3 (0x2)
        Serial Number:
            6c:10:44:65:09:c8:5e:2e:41:0c:e6:cf:6a:45:71:84:3d:1b:03:19
        Signature Algorithm: sha256WithRSAEncryption
        Issuer: C=JP, ST=Tokyo, O=Waseda University, OU=Shimizu-Lab, CN=localhost
        Validity
            Not Before: Aug 11 13:04:19 2019 GMT
            Not After : Aug 10 13:04:19 2022 GMT
        Subject: C=JP, ST=Tokyo, O=Waseda University, OU=Shimizu-Lab, CN=localhost
        Subject Public Key Info:
            Public Key Algorithm: rsaEncryption
                RSA Public-Key: (2048 bit)
                Modulus:
                    00:ce:89:54:08:12:6e:d9:c6:f9:00:7c:ee:d6:47:
                    4a:61:56:71:6f:52:fc:99:6a:67:83:03:03:5f:9d:
                    5a:5c:d4:40:49:64:06:ea:6c:29:9d:72:f2:fc:da:
                    12:f7:7e:48:b8:7f:6a:aa:d4:44:66:bf:2e:2e:36:
                    f2:52:a5:82:cf:cf:a8:85:75:2c:be:98:b9:f7:97:
                    df:18:6f:fd:fd:f7:a0:de:b2:ea:e6:5e:80:98:43:
                    0d:af:31:92:6c:65:97:d8:14:40:b9:99:97:50:74:
                    40:4a:0c:da:4c:e0:cc:26:a8:eb:eb:04:01:2a:48:
                    bb:c8:53:71:1c:b9:e7:2a:0b:42:94:7f:fb:63:11:
                    34:40:31:9c:c1:21:a4:56:fe:e4:f2:a4:38:0d:12:
                    74:8d:19:57:4f:10:0e:1d:ba:7e:e3:76:d2:92:22:
                    58:73:1b:9a:6c:9f:0d:68:4d:4a:1f:53:6d:fc:e0:
                    c2:16:b3:b1:69:d7:f3:d4:21:e4:7c:ae:c8:b7:46:
                    eb:8c:f5:fb:26:9f:cb:cc:39:93:59:94:3c:33:b4:
                    be:62:21:19:78:b3:ee:34:9d:bf:a6:19:bc:3f:58:
                    fa:6c:c1:f7:60:8c:b4:07:f8:43:fa:ff:21:9e:8d:
                    d7:02:34:76:eb:1b:04:8a:cc:aa:3d:ca:fe:ad:eb:
                    e2:b7
                Exponent: 65537 (0x10001)
        X509v3 extensions:
            X509v3 Subject Key Identifier: 
                49:57:77:02:4D:C2:4B:6C:A7:30:8B:A3:03:05:39:0C:CB:ED:28:9B
            X509v3 Authority Key Identifier: 
                keyid:49:57:77:02:4D:C2:4B:6C:A7:30:8B:A3:03:05:39:0C:CB:ED:28:9B

            X509v3 Basic Constraints: 
                CA:TRUE
    Signature Algorithm: sha256WithRSAEncryption
         2b:3b:23:e5:ed:fe:e1:9f:6e:6f:0b:54:d3:4d:b6:4d:33:d7:
         fa:96:70:47:b5:8e:a2:32:5a:af:84:f4:d9:1a:91:a1:50:6b:
         d4:ba:c1:c1:56:25:c5:4f:e6:dc:bc:ea:59:ab:ad:f6:41:e1:
         02:0a:33:7d:f6:ee:15:a0:ed:51:db:46:f9:82:a4:10:52:a8:
         19:dc:44:a4:38:86:2b:e4:48:ad:85:46:cf:f6:a5:50:ad:e1:
         39:06:07:d2:be:ab:fc:ba:d7:27:98:d0:07:e0:d7:38:ad:97:
         a1:be:f5:73:d2:37:a9:43:7d:99:6e:c3:40:39:b8:db:93:d8:
         e8:e3:dd:ad:b6:15:ed:a3:eb:15:ce:a3:b3:a1:1b:ff:4a:b8:
         74:f9:73:5d:36:fe:1a:1d:38:91:82:ec:52:22:07:42:56:87:
         ef:b8:85:81:c9:18:31:8c:2e:46:fe:b0:e2:83:4c:46:65:c1:
         8a:e8:2e:c6:ba:9b:f5:f3:81:7f:53:ed:e3:04:e1:c7:6a:76:
         d4:cf:9a:20:d6:96:37:bc:45:bf:18:8e:f8:c6:c6:c8:c7:fb:
         b1:86:bf:7d:57:92:c9:1d:b8:22:bd:8c:6c:c2:76:bb:35:55:
         ce:97:37:cc:21:37:76:6b:bf:10:38:47:01:c8:ec:b9:3f:0b:
         2b:08:62:8c
-----BEGIN CERTIFICATE-----
MIIDpDCCAoygAwIBAgIUbBBEZQnIXi5BDObPakVxhD0bAxkwDQYJKoZIhvcNAQEL
BQAwYzELMAkGA1UEBhMCSlAxDjAMBgNVBAgMBVRva3lvMRowGAYDVQQKDBFXYXNl
ZGEgVW5pdmVyc2l0eTEUMBIGA1UECwwLU2hpbWl6dS1MYWIxEjAQBgNVBAMMCWxv
Y2FsaG9zdDAeFw0xOTA4MTExMzA0MTlaFw0yMjA4MTAxMzA0MTlaMGMxCzAJBgNV
BAYTAkpQMQ4wDAYDVQQIDAVUb2t5bzEaMBgGA1UECgwRV2FzZWRhIFVuaXZlcnNp
dHkxFDASBgNVBAsMC1NoaW1penUtTGFiMRIwEAYDVQQDDAlsb2NhbGhvc3QwggEi
MA0GCSqGSIb3DQEBAQUAA4IBDwAwggEKAoIBAQDOiVQIEm7ZxvkAfO7WR0phVnFv
UvyZameDAwNfnVpc1EBJZAbqbCmdcvL82hL3fki4f2qq1ERmvy4uNvJSpYLPz6iF
dSy+mLn3l98Yb/3996DesurmXoCYQw2vMZJsZZfYFEC5mZdQdEBKDNpM4MwmqOvr
BAEqSLvIU3EcuecqC0KUf/tjETRAMZzBIaRW/uTypDgNEnSNGVdPEA4dun7jdtKS
IlhzG5psnw1oTUofU2384MIWs7Fp1/PUIeR8rsi3RuuM9fsmn8vMOZNZlDwztL5i
IRl4s+40nb+mGbw/WPpswfdgjLQH+EP6/yGejdcCNHbrGwSKzKo9yv6t6+K3AgMB
AAGjUDBOMB0GA1UdDgQWBBRJV3cCTcJLbKcwi6MDBTkMy+0omzAfBgNVHSMEGDAW
gBRJV3cCTcJLbKcwi6MDBTkMy+0omzAMBgNVHRMEBTADAQH/MA0GCSqGSIb3DQEB
CwUAA4IBAQArOyPl7f7hn25vC1TTTbZNM9f6lnBHtY6iMlqvhPTZGpGhUGvUusHB
ViXFT+bcvOpZq632QeECCjN99u4VoO1R20b5gqQQUqgZ3ESkOIYr5EithUbP9qVQ
reE5BgfSvqv8utcnmNAH4Nc4rZehvvVz0jepQ32ZbsNAObjbk9jo492tthXto+sV
zqOzoRv/Srh0+XNdNv4aHTiRguxSIgdCVofvuIWByRgxjC5G/rDig0xGZcGK6C7G
upv184F/U+3jBOHHanbUz5og1pY3vEW/GI74xsbIx/uxhr99V5LJHbgivYxswna7
NVXOlzfMITd2a78QOEcByOy5PwsrCGKM
-----END CERTIFICATE-----
