Certificate:
    Data:
        Version: 3 (0x2)
        Serial Number:
            6c:10:44:65:09:c8:5e:2e:41:0c:e6:cf:6a:45:71:84:3d:1b:03:1a
        Signature Algorithm: sha256WithRSAEncryption
        Issuer: C=JP, ST=Tokyo, O=Waseda University, OU=Shimizu-Lab, CN=localhost
        Validity
            Not Before: Aug 11 13:07:11 2019 GMT
            Not After : Aug 10 13:07:11 2020 GMT
        Subject: C=JP, ST=Tokyo, O=Waseda University, OU=server, CN=localhost
        Subject Public Key Info:
            Public Key Algorithm: rsaEncryption
                RSA Public-Key: (2048 bit)
                Modulus:
                    00:d0:72:cf:08:6d:d6:ed:0e:29:d1:ff:45:35:20:
                    ef:af:72:6e:0d:d2:51:5f:b7:f0:fa:30:35:31:7f:
                    07:4f:87:c8:0c:c8:37:b8:c5:7d:8b:f5:44:31:67:
                    af:66:a2:97:32:48:fe:11:98:6a:95:da:a1:cc:39:
                    17:ed:4e:02:bc:7a:a1:b4:67:c4:e2:eb:f1:8b:52:
                    1f:77:c6:78:7d:c9:f1:c5:0f:98:78:89:4e:ca:0b:
                    06:14:b5:d4:b2:6f:a5:71:5a:4b:a0:1b:51:43:f2:
                    e0:06:9a:05:2b:b0:2e:1b:51:e9:12:36:76:ac:6b:
                    a0:b9:c9:d9:c8:60:83:3d:97:28:3f:26:22:ab:5f:
                    e3:c4:72:a1:b4:08:a3:e4:d6:12:53:5d:40:c2:06:
                    51:c8:39:45:e9:66:8b:54:86:0a:63:c9:c2:77:4a:
                    0a:db:74:e7:70:61:5a:97:41:85:2b:65:6b:fd:3d:
                    92:75:d6:64:61:00:ff:d4:0e:39:d1:79:88:c5:55:
                    c7:d5:31:89:0c:55:3b:d6:e8:e3:49:1c:f5:68:f3:
                    c5:66:bd:d6:66:47:7b:b1:08:08:12:e4:aa:38:b5:
                    02:16:7d:05:12:de:d9:a0:80:04:5d:78:de:b7:68:
                    0c:19:b7:c1:72:60:c3:97:62:a0:6d:56:7f:66:4f:
                    76:ff
                Exponent: 65537 (0x10001)
        X509v3 extensions:
            X509v3 Basic Constraints: 
                CA:FALSE
            Netscape Comment: 
                OpenSSL Generated Certificate
            X509v3 Subject Key Identifier: 
                1B:BB:E7:67:D6:D5:3E:D7:D5:4B:AD:34:62:92:C7:C6:70:1A:AF:B5
            X509v3 Authority Key Identifier: 
                keyid:49:57:77:02:4D:C2:4B:6C:A7:30:8B:A3:03:05:39:0C:CB:ED:28:9B

    Signature Algorithm: sha256WithRSAEncryption
         1c:ee:4f:ea:19:17:f6:50:4b:30:ce:bf:1f:9f:78:f4:04:cc:
         33:43:51:db:de:9c:47:05:f2:df:54:25:8e:d0:86:c7:1a:87:
         21:63:49:83:e6:de:2f:93:fc:05:62:54:29:17:46:4e:25:04:
         a7:78:bd:e4:c8:75:e0:b6:86:41:e3:04:aa:9b:d6:e3:72:9b:
         ba:51:36:93:bf:bd:e7:20:a2:70:c5:4e:20:09:97:4b:8a:ec:
         74:0a:2d:4a:35:b0:ab:25:70:d8:49:a0:be:f5:bd:b5:67:08:
         28:9d:c5:82:46:12:0e:87:a8:fd:ab:f2:57:80:97:2a:29:79:
         6a:77:ba:2e:2c:e0:b6:17:8e:c8:20:d9:2d:9c:08:5d:83:3f:
         cc:31:33:68:60:07:cb:97:52:d4:d8:3a:72:f5:22:a2:6b:f3:
         b2:a0:d3:bd:b0:6a:cb:40:e9:df:1a:11:a2:f0:ed:d8:31:95:
         0a:38:bb:29:95:20:c1:2c:e7:9e:72:8f:a9:cf:84:2c:df:d9:
         ef:af:c1:4e:b0:fb:2c:94:11:32:4e:1f:16:5a:23:8f:51:e7:
         c4:5a:37:12:4c:90:c0:1d:79:ee:67:93:04:4e:32:42:47:af:
         7c:1c:83:a1:83:1c:6a:d0:c5:bd:c3:5f:57:3e:45:78:af:13:
         88:6a:2b:7f
-----BEGIN CERTIFICATE-----
MIIDyjCCArKgAwIBAgIUbBBEZQnIXi5BDObPakVxhD0bAxowDQYJKoZIhvcNAQEL
BQAwYzELMAkGA1UEBhMCSlAxDjAMBgNVBAgMBVRva3lvMRowGAYDVQQKDBFXYXNl
ZGEgVW5pdmVyc2l0eTEUMBIGA1UECwwLU2hpbWl6dS1MYWIxEjAQBgNVBAMMCWxv
Y2FsaG9zdDAeFw0xOTA4MTExMzA3MTFaFw0yMDA4MTAxMzA3MTFaMF4xCzAJBgNV
BAYTAkpQMQ4wDAYDVQQIDAVUb2t5bzEaMBgGA1UECgwRV2FzZWRhIFVuaXZlcnNp
dHkxDzANBgNVBAsMBnNlcnZlcjESMBAGA1UEAwwJbG9jYWxob3N0MIIBIjANBgkq
hkiG9w0BAQEFAAOCAQ8AMIIBCgKCAQEA0HLPCG3W7Q4p0f9FNSDvr3JuDdJRX7fw
+jA1MX8HT4fIDMg3uMV9i/VEMWevZqKXMkj+EZhqldqhzDkX7U4CvHqhtGfE4uvx
i1Ifd8Z4fcnxxQ+YeIlOygsGFLXUsm+lcVpLoBtRQ/LgBpoFK7AuG1HpEjZ2rGug
ucnZyGCDPZcoPyYiq1/jxHKhtAij5NYSU11AwgZRyDlF6WaLVIYKY8nCd0oK23Tn
cGFal0GFK2Vr/T2SddZkYQD/1A450XmIxVXH1TGJDFU71ujjSRz1aPPFZr3WZkd7
sQgIEuSqOLUCFn0FEt7ZoIAEXXjet2gMGbfBcmDDl2KgbVZ/Zk92/wIDAQABo3sw
eTAJBgNVHRMEAjAAMCwGCWCGSAGG+EIBDQQfFh1PcGVuU1NMIEdlbmVyYXRlZCBD
ZXJ0aWZpY2F0ZTAdBgNVHQ4EFgQUG7vnZ9bVPtfVS600YpLHxnAar7UwHwYDVR0j
BBgwFoAUSVd3Ak3CS2ynMIujAwU5DMvtKJswDQYJKoZIhvcNAQELBQADggEBABzu
T+oZF/ZQSzDOvx+fePQEzDNDUdvenEcF8t9UJY7QhscahyFjSYPm3i+T/AViVCkX
Rk4lBKd4veTIdeC2hkHjBKqb1uNym7pRNpO/vecgonDFTiAJl0uK7HQKLUo1sKsl
cNhJoL71vbVnCCidxYJGEg6HqP2r8leAlyopeWp3ui4s4LYXjsgg2S2cCF2DP8wx
M2hgB8uXUtTYOnL1IqJr87Kg072wastA6d8aEaLw7dgxlQo4uymVIMEs555yj6nP
hCzf2e+vwU6w+yyUETJOHxZaI49R58RaNxJMkMAdee5nkwROMkJHr3wcg6GDHGrQ
xb3DX1c+RXivE4hqK38=
-----END CERTIFICATE-----
-----BEGIN RSA PRIVATE KEY-----
Proc-Type: 4,ENCRYPTED
DEK-Info: DES-EDE3-CBC,0BABDAAF6B38931E

snNv5JhYAg06Oea5SN6qPhepHnU0cc/caT4FCCaOSMQQoxDD+6EzooS9hhTdeGGe
tS+iR/UXGYV83E+VmwU6hPQeoZeuQ//SS0AMZzGR80zIP3wxLlt0QQzbqIqe0DoD
xMY/avoPv90ad0qGar+5oQwq5v0LHYOV+UgEJFGsJUK685BxBibMOiuJ1sd42iKc
QvINNaJHW4+k7ln0s7syGVdSYwUA6H7cWmtCYG0rg8MLio90Wu0JWAm0f2awJPOY
L5mlkey5JIzCUrTUtczcCy+ThX+zSt+bzRFHjLX9Jc2fVSyXcLcS+XfZ+EEYHluU
x1Dh9k23ieutl6peYNqpgNmGn2pBj8mzB6++jqWIcAPGuL53pLaPfyblk6WfgaHo
7MixdfeBg38aja4F+3R1L/2CkveAVh1SAbHGrbEVK9j/UkkcPr3GD1frElI5fwgd
cSebRQJdXyW+Ivf9ARExrzC2n8qIvJeZbBlCaQ1eVbHgB2q634WHjPcdF/kW8YYc
+H4tVdh/get6B4VeEMysZYkKla+t2E59Ypsx7LmjVWj+Teeir9g5ryjworpI72H5
ALfP4ekWomoXxRb0PILKZXl7amRSZDoJONeXaPrBRG9T0al8LXW1qMv0Gpjti44p
XkLoTvZqNkRwg2U4SbzNXAgcGSGyT0YS80PQJcXgHqW2QkhlqndG9CSHgB0ukB9m
vvQcEboNQWi0Oz8vZfcSBrpwu0o1jlpIS7oTgkn0j18+PGz8Q3IH+NKMTnedwU3p
B+Ky3raZg4HcEqnnXsOP6uaLIKcjNGaR9598NDj5JmWz0oEHWJvh/nothSvDxIO6
R8MpKbrRgbjcXt3aRGe7FH+3LMI3d8Tcph+0zq8Fu0hcqO2L8CRxLJ5MGNPj7I34
kvdbUeCWbbkoSgAD69ihmlUVe62Ag8/PTryXA7n7UF0/5f7YAU9ekqF09kZGHNvE
KDW1kV1RLSPxJqJkR7TQVc+WapOzvUkQCUFy0WogtsCmW4ElK5Qgx+UwVNTiGMhz
947uT7UyaqHVr1htziMvuHRXxgmS5IUz/0va/LVbva9OVSpiOd5cjN//lQI7wQfU
6E9D4F9lUejME3NToWIbLwfFLta93vcJHxJbE0NeD7h1j0CQ5cgaZXFRD/88zdPG
qoQorE3aE7CO1et1zSMJMwo8wfpcwXxyd16ebXHswRu0XxZEA8WZuwgfBgHuung3
my5NknS/baVdzEZBTUFBUdFre2w7IpXIH3uK1RvvDnT8gZEg5G+h/crU8KOXj/bB
VmqtVhrX520rPsVoOK83YO5G6Zc1TKERgGke17am3/SoQhRmKscl06aGprHrxQ9I
Jww8VhcX9ZcUzyLyh/hOXfc0pMiP2W24UXmSHBWKrBepc7Jn4zjm9smWMFPVq7wN
OXJJkIjAfDBWYuPhUdmlANt3o0fP3MzAAUSsJnx7nYJOM3mTqa2tiHNYGo/L3i4d
v1iAGaEdIt8ib9pfNmp0D1OJUs7Hex6HWXq+VhuHYgEcBKXIbyiKgfi9Pwb0P4dn
1ucSbyA3jX3wur2LmB+2bz5eOlvj+e8/0bWE0lGrRqwqABjP7B/DbA==
-----END RSA PRIVATE KEY-----
